target datalayout = "e-m:e-p270:32:32-p271:32:32-p272:64:64-i64:64-i128:128-f80:128-n8:16:32:64-S128"
target triple = "x86_64-pc-linux-gnu"

%struct.lean_object = type { i32, i32 }
%"struct.lean::mpz_object" = type { %struct.lean_object, %"class.lean::mpz" }
%"class.lean::mpz" = type { [1 x %struct.__mpz_struct] }
%struct.__mpz_struct = type { i32, i32, ptr }

; Function Attrs: inlinehint mustprogress nounwind uwtable
define linkonce_odr hidden noundef ptr @_ZN4lean6to_mpzEP11lean_object(ptr noundef %0) #9 comdat {
  %2 = alloca ptr, align 8
  store ptr %0, ptr %2, align 8, !tbaa !3
  %3 = load ptr, ptr %2, align 8, !tbaa !3
  ret ptr %3
}

; Function Attrs: inlinehint mustprogress nounwind uwtable
define internal noundef i64 @_ZL10lean_unboxP11lean_object(ptr noundef %0) #9 {
  %2 = alloca ptr, align 8
  store ptr %0, ptr %2, align 8, !tbaa !3
  %3 = load ptr, ptr %2, align 8, !tbaa !3
  %4 = ptrtoint ptr %3 to i64
  %5 = lshr i64 %4, 1
  ret i64 %5
}

; Function Attrs: mustprogress uwtable
define linkonce_odr hidden void @_ZN4leanmlENS_3mpzERKS0_(ptr dead_on_unwind noalias writable sret(%"class.lean::mpz") align 8 %0, ptr noundef %1, ptr noundef nonnull align 8 dereferenceable(16) %2) #0 comdat {
  %4 = alloca ptr, align 8
  %5 = alloca ptr, align 8
  %6 = alloca ptr, align 8
  store ptr %0, ptr %4, align 8
  store ptr %1, ptr %5, align 8, !tbaa !115
  store ptr %2, ptr %6, align 8, !tbaa !115
  %7 = load ptr, ptr %6, align 8, !tbaa !115
  %8 = call noundef nonnull align 8 dereferenceable(16) ptr @_ZN4lean3mpzmLERKS0_(ptr noundef nonnull align 8 dereferenceable(16) %1, ptr noundef nonnull align 8 dereferenceable(16) %7)
  call void @_ZN4lean3mpzC1ERKS0_(ptr noundef nonnull align 8 dereferenceable(16) %0, ptr noundef nonnull align 8 dereferenceable(16) %8)
  ret void
}

; Function Attrs: mustprogress uwtable
define linkonce_odr hidden void @_ZN4leanmlENS_3mpzEi(ptr dead_on_unwind noalias writable sret(%"class.lean::mpz") align 8 %0, ptr noundef %1, i32 noundef %2) #0 comdat {
  %4 = alloca ptr, align 8
  %5 = alloca ptr, align 8
  %6 = alloca i32, align 4
  store ptr %0, ptr %4, align 8
  store ptr %1, ptr %5, align 8, !tbaa !115
  store i32 %2, ptr %6, align 4, !tbaa !19
  %7 = load i32, ptr %6, align 4, !tbaa !19
  %8 = call noundef nonnull align 8 dereferenceable(16) ptr @_ZN4lean3mpzmLEi(ptr noundef nonnull align 8 dereferenceable(16) %1, i32 noundef %7)
  call void @_ZN4lean3mpzC1ERKS0_(ptr noundef nonnull align 8 dereferenceable(16) %0, ptr noundef nonnull align 8 dereferenceable(16) %8)
  ret void
}

; Function Attrs: mustprogress uwtable
define linkonce_odr hidden void @_ZN4leanmlEiNS_3mpzE(ptr dead_on_unwind noalias writable sret(%"class.lean::mpz") align 8 %0, i32 noundef %1, ptr noundef %2) #0 comdat {
  %4 = alloca ptr, align 8
  %5 = alloca i32, align 4
  %6 = alloca ptr, align 8
  store ptr %0, ptr %4, align 8
  store i32 %1, ptr %5, align 4, !tbaa !19
  store ptr %2, ptr %6, align 8, !tbaa !115
  %7 = load i32, ptr %5, align 4, !tbaa !19
  %8 = call noundef nonnull align 8 dereferenceable(16) ptr @_ZN4lean3mpzmLEi(ptr noundef nonnull align 8 dereferenceable(16) %2, i32 noundef %7)
  call void @_ZN4lean3mpzC1ERKS0_(ptr noundef nonnull align 8 dereferenceable(16) %0, ptr noundef nonnull align 8 dereferenceable(16) %8)
  ret void
}

; Function Attrs: inlinehint mustprogress nounwind uwtable
define linkonce_odr hidden noundef nonnull align 8 dereferenceable(16) ptr @_ZN4lean9mpz_valueEP11lean_object(ptr noundef %0) #9 comdat {
  %2 = alloca ptr, align 8
  store ptr %0, ptr %2, align 8, !tbaa !3
  %3 = load ptr, ptr %2, align 8, !tbaa !3
  %4 = call noundef ptr @_ZN4lean6to_mpzEP11lean_object(ptr noundef %3)
  %5 = getelementptr inbounds nuw %"struct.lean::mpz_object", ptr %4, i32 0, i32 1
  ret ptr %5
}

; Function Attrs: inlinehint mustprogress nounwind uwtable
define internal noundef i32 @_ZL18lean_scalar_to_intP11lean_object(ptr noundef %0) #9 {
  %2 = alloca ptr, align 8
  store ptr %0, ptr %2, align 8, !tbaa !3
  %3 = load ptr, ptr %2, align 8, !tbaa !3
  %4 = call noundef i64 @_ZL10lean_unboxP11lean_object(ptr noundef %3)
  %5 = trunc i64 %4 to i32
  ret i32 %5
}

; Function Attrs: alwaysinline mustprogress nounwind uwtable
define internal noundef zeroext i1 @_ZL14lean_is_scalarP11lean_object(ptr noundef %0) #11 {
  %2 = alloca ptr, align 8
  store ptr %0, ptr %2, align 8, !tbaa !3
  %3 = load ptr, ptr %2, align 8, !tbaa !3
  %4 = ptrtoint ptr %3 to i64
  %5 = and i64 %4, 1
  %6 = icmp eq i64 %5, 1
  ret i1 %6
}

; Function Attrs: mustprogress uwtable
define ptr @lean_int_big_mul(ptr noundef %0, ptr noundef %1) #0 personality ptr @__gxx_personality_v0 {
  %3 = alloca ptr, align 8
  %4 = alloca ptr, align 8
  %5 = alloca ptr, align 8
  %6 = alloca %"class.lean::mpz", align 8
  %7 = alloca %"class.lean::mpz", align 8
  %8 = alloca ptr, align 8
  %9 = alloca i32, align 4
  %10 = alloca %"class.lean::mpz", align 8
  %11 = alloca %"class.lean::mpz", align 8
  %12 = alloca %"class.lean::mpz", align 8
  %13 = alloca %"class.lean::mpz", align 8
  store ptr %0, ptr %4, align 8, !tbaa !3
  store ptr %1, ptr %5, align 8, !tbaa !3
  %14 = load ptr, ptr %4, align 8, !tbaa !3
  %15 = call noundef zeroext i1 @_ZL14lean_is_scalarP11lean_object(ptr noundef %14)
  br i1 %15, label %16, label %33

16:                                               ; preds = %2
  call void @llvm.lifetime.start.p0(i64 16, ptr %6) #23
  %17 = load ptr, ptr %4, align 8, !tbaa !3
  %18 = call noundef i32 @_ZL18lean_scalar_to_intP11lean_object(ptr noundef %17)
  %19 = load ptr, ptr %5, align 8, !tbaa !3
  %20 = call noundef nonnull align 8 dereferenceable(16) ptr @_ZN4lean9mpz_valueEP11lean_object(ptr noundef %19)
  call void @_ZN4lean3mpzC1ERKS0_(ptr noundef nonnull align 8 dereferenceable(16) %7, ptr noundef nonnull align 8 dereferenceable(16) %20)
  invoke void @_ZN4leanmlEiNS_3mpzE(ptr dead_on_unwind writable sret(%"class.lean::mpz") align 8 %6, i32 noundef %18, ptr noundef %7)
          to label %21 unwind label %24

21:                                               ; preds = %16
  %22 = invoke noundef ptr @_ZN4leanL10mpz_to_intERKNS_3mpzE(ptr noundef nonnull align 8 dereferenceable(16) %6)
          to label %23 unwind label %28

23:                                               ; preds = %21
  store ptr %22, ptr %3, align 8
  call void @_ZN4lean3mpzD1Ev(ptr noundef nonnull align 8 dereferenceable(16) %6) #23
  call void @_ZN4lean3mpzD1Ev(ptr noundef nonnull align 8 dereferenceable(16) %7) #23
  call void @llvm.lifetime.end.p0(i64 16, ptr %6) #23
  br label %72

24:                                               ; preds = %16
  %25 = landingpad { ptr, i32 }
          cleanup
  %26 = extractvalue { ptr, i32 } %25, 0
  store ptr %26, ptr %8, align 8
  %27 = extractvalue { ptr, i32 } %25, 1
  store i32 %27, ptr %9, align 4
  br label %32

28:                                               ; preds = %21
  %29 = landingpad { ptr, i32 }
          cleanup
  %30 = extractvalue { ptr, i32 } %29, 0
  store ptr %30, ptr %8, align 8
  %31 = extractvalue { ptr, i32 } %29, 1
  store i32 %31, ptr %9, align 4
  call void @_ZN4lean3mpzD1Ev(ptr noundef nonnull align 8 dereferenceable(16) %6) #23
  br label %32

32:                                               ; preds = %28, %24
  call void @_ZN4lean3mpzD1Ev(ptr noundef nonnull align 8 dereferenceable(16) %7) #23
  call void @llvm.lifetime.end.p0(i64 16, ptr %6) #23
  br label %74

33:                                               ; preds = %2
  %34 = load ptr, ptr %5, align 8, !tbaa !3
  %35 = call noundef zeroext i1 @_ZL14lean_is_scalarP11lean_object(ptr noundef %34)
  br i1 %35, label %36, label %54

36:                                               ; preds = %33
  call void @llvm.lifetime.start.p0(i64 16, ptr %10) #23
  %37 = load ptr, ptr %4, align 8, !tbaa !3
  %38 = call noundef nonnull align 8 dereferenceable(16) ptr @_ZN4lean9mpz_valueEP11lean_object(ptr noundef %37)
  call void @_ZN4lean3mpzC1ERKS0_(ptr noundef nonnull align 8 dereferenceable(16) %11, ptr noundef nonnull align 8 dereferenceable(16) %38)
  %39 = load ptr, ptr %5, align 8, !tbaa !3
  %40 = invoke noundef i32 @_ZL18lean_scalar_to_intP11lean_object(ptr noundef %39)
          to label %41 unwind label %45

41:                                               ; preds = %36
  invoke void @_ZN4leanmlENS_3mpzEi(ptr dead_on_unwind writable sret(%"class.lean::mpz") align 8 %10, ptr noundef %11, i32 noundef %40)
          to label %42 unwind label %45

42:                                               ; preds = %41
  %43 = invoke noundef ptr @_ZN4leanL10mpz_to_intERKNS_3mpzE(ptr noundef nonnull align 8 dereferenceable(16) %10)
          to label %44 unwind label %49

44:                                               ; preds = %42
  store ptr %43, ptr %3, align 8
  call void @_ZN4lean3mpzD1Ev(ptr noundef nonnull align 8 dereferenceable(16) %10) #23
  call void @_ZN4lean3mpzD1Ev(ptr noundef nonnull align 8 dereferenceable(16) %11) #23
  call void @llvm.lifetime.end.p0(i64 16, ptr %10) #23
  br label %72

45:                                               ; preds = %41, %36
  %46 = landingpad { ptr, i32 }
          cleanup
  %47 = extractvalue { ptr, i32 } %46, 0
  store ptr %47, ptr %8, align 8
  %48 = extractvalue { ptr, i32 } %46, 1
  store i32 %48, ptr %9, align 4
  br label %53

49:                                               ; preds = %42
  %50 = landingpad { ptr, i32 }
          cleanup
  %51 = extractvalue { ptr, i32 } %50, 0
  store ptr %51, ptr %8, align 8
  %52 = extractvalue { ptr, i32 } %50, 1
  store i32 %52, ptr %9, align 4
  call void @_ZN4lean3mpzD1Ev(ptr noundef nonnull align 8 dereferenceable(16) %10) #23
  br label %53

53:                                               ; preds = %49, %45
  call void @_ZN4lean3mpzD1Ev(ptr noundef nonnull align 8 dereferenceable(16) %11) #23
  call void @llvm.lifetime.end.p0(i64 16, ptr %10) #23
  br label %74

54:                                               ; preds = %33
  call void @llvm.lifetime.start.p0(i64 16, ptr %12) #23
  %55 = load ptr, ptr %4, align 8, !tbaa !3
  %56 = call noundef nonnull align 8 dereferenceable(16) ptr @_ZN4lean9mpz_valueEP11lean_object(ptr noundef %55)
  call void @_ZN4lean3mpzC1ERKS0_(ptr noundef nonnull align 8 dereferenceable(16) %13, ptr noundef nonnull align 8 dereferenceable(16) %56)
  %57 = load ptr, ptr %5, align 8, !tbaa !3
  %58 = invoke noundef nonnull align 8 dereferenceable(16) ptr @_ZN4lean9mpz_valueEP11lean_object(ptr noundef %57)
          to label %59 unwind label %63

59:                                               ; preds = %54
  invoke void @_ZN4leanmlENS_3mpzERKS0_(ptr dead_on_unwind writable sret(%"class.lean::mpz") align 8 %12, ptr noundef %13, ptr noundef nonnull align 8 dereferenceable(16) %58)
          to label %60 unwind label %63

60:                                               ; preds = %59
  %61 = invoke noundef ptr @_ZN4leanL10mpz_to_intERKNS_3mpzE(ptr noundef nonnull align 8 dereferenceable(16) %12)
          to label %62 unwind label %67

62:                                               ; preds = %60
  store ptr %61, ptr %3, align 8
  call void @_ZN4lean3mpzD1Ev(ptr noundef nonnull align 8 dereferenceable(16) %12) #23
  call void @_ZN4lean3mpzD1Ev(ptr noundef nonnull align 8 dereferenceable(16) %13) #23
  call void @llvm.lifetime.end.p0(i64 16, ptr %12) #23
  br label %72

63:                                               ; preds = %59, %54
  %64 = landingpad { ptr, i32 }
          cleanup
  %65 = extractvalue { ptr, i32 } %64, 0
  store ptr %65, ptr %8, align 8
  %66 = extractvalue { ptr, i32 } %64, 1
  store i32 %66, ptr %9, align 4
  br label %71

67:                                               ; preds = %60
  %68 = landingpad { ptr, i32 }
          cleanup
  %69 = extractvalue { ptr, i32 } %68, 0
  store ptr %69, ptr %8, align 8
  %70 = extractvalue { ptr, i32 } %68, 1
  store i32 %70, ptr %9, align 4
  call void @_ZN4lean3mpzD1Ev(ptr noundef nonnull align 8 dereferenceable(16) %12) #23
  br label %71

71:                                               ; preds = %67, %63
  call void @_ZN4lean3mpzD1Ev(ptr noundef nonnull align 8 dereferenceable(16) %13) #23
  call void @llvm.lifetime.end.p0(i64 16, ptr %12) #23
  br label %74

72:                                               ; preds = %62, %44, %23
  %73 = load ptr, ptr %3, align 8
  ret ptr %73

74:                                               ; preds = %71, %53, %32
  %75 = load ptr, ptr %8, align 8
  %76 = load i32, ptr %9, align 4
  %77 = insertvalue { ptr, i32 } poison, ptr %75, 0
  %78 = insertvalue { ptr, i32 } %77, i32 %76, 1
  resume { ptr, i32 } %78
}