; Function Attrs: mustprogress uwtable
define noundef ptr @lean_int_big_mul(ptr noundef %0, ptr noundef %1) local_unnamed_addr #0 personality ptr @__gxx_personality_v0 {
  %3 = alloca %"class.lean::mpz", align 8
  %4 = alloca %"class.lean::mpz", align 8
  %5 = alloca %"class.lean::mpz", align 8
  %6 = alloca %"class.lean::mpz", align 8
  %7 = alloca %"class.lean::mpz", align 8
  %8 = alloca %"class.lean::mpz", align 8
  %9 = ptrtoint ptr %0 to i64
  %10 = and i64 %9, 1
  %.not = icmp eq i64 %10, 0
  br i1 %.not, label %23, label %11

11:                                               ; preds = %2
  call void @llvm.lifetime.start.p0(i64 16, ptr nonnull %3) #40
  %12 = lshr i64 %9, 1
  %13 = trunc i64 %12 to i32
  %14 = getelementptr inbounds nuw i8, ptr %1, i64 8
  call void @_ZN4lean3mpzC1ERKS0_(ptr noundef nonnull align 8 dereferenceable(16) %4, ptr noundef nonnull align 8 dereferenceable(16) %14)
  %15 = invoke noundef nonnull align 8 dereferenceable(16) ptr @_ZN4lean3mpzmLEi(ptr noundef nonnull align 8 dereferenceable(16) %4, i32 noundef %13)
          to label %.noexc unwind label %18

.noexc:                                           ; preds = %11
  invoke void @_ZN4lean3mpzC1ERKS0_(ptr noundef nonnull align 8 dereferenceable(16) %3, ptr noundef nonnull align 8 dereferenceable(16) %15)
          to label %_ZN4leanmlEiNS_3mpzE.exit unwind label %18

_ZN4leanmlEiNS_3mpzE.exit:                        ; preds = %.noexc
  %16 = invoke fastcc noundef ptr @_ZN4leanL10mpz_to_intERKNS_3mpzE(ptr noundef nonnull align 8 dereferenceable(16) %3)
          to label %17 unwind label %20

17:                                               ; preds = %_ZN4leanmlEiNS_3mpzE.exit
  call void @_ZN4lean3mpzD1Ev(ptr noundef nonnull align 8 dereferenceable(16) %3) #40
  call void @_ZN4lean3mpzD1Ev(ptr noundef nonnull align 8 dereferenceable(16) %4) #40
  call void @llvm.lifetime.end.p0(i64 16, ptr nonnull %3) #40
  br label %48

18:                                               ; preds = %.noexc, %11
  %19 = landingpad { ptr, i32 }
          cleanup
  br label %22

20:                                               ; preds = %_ZN4leanmlEiNS_3mpzE.exit
  %21 = landingpad { ptr, i32 }
          cleanup
  call void @_ZN4lean3mpzD1Ev(ptr noundef nonnull align 8 dereferenceable(16) %3) #40
  br label %22

22:                                               ; preds = %20, %18
  %.pn18 = phi { ptr, i32 } [ %21, %20 ], [ %19, %18 ]
  call void @_ZN4lean3mpzD1Ev(ptr noundef nonnull align 8 dereferenceable(16) %4) #40
  call void @llvm.lifetime.end.p0(i64 16, ptr nonnull %3) #40
  br label %49

23:                                               ; preds = %2
  %24 = ptrtoint ptr %1 to i64
  %25 = and i64 %24, 1
  %.not26 = icmp eq i64 %25, 0
  %26 = getelementptr inbounds nuw i8, ptr %0, i64 8
  br i1 %.not26, label %38, label %27

27:                                               ; preds = %23
  call void @llvm.lifetime.start.p0(i64 16, ptr nonnull %5) #40
  call void @_ZN4lean3mpzC1ERKS0_(ptr noundef nonnull align 8 dereferenceable(16) %6, ptr noundef nonnull align 8 dereferenceable(16) %26)
  %28 = lshr i64 %24, 1
  %29 = trunc i64 %28 to i32
  %30 = invoke noundef nonnull align 8 dereferenceable(16) ptr @_ZN4lean3mpzmLEi(ptr noundef nonnull align 8 dereferenceable(16) %6, i32 noundef %29)
          to label %.noexc22 unwind label %33

.noexc22:                                         ; preds = %27
  invoke void @_ZN4lean3mpzC1ERKS0_(ptr noundef nonnull align 8 dereferenceable(16) %5, ptr noundef nonnull align 8 dereferenceable(16) %30)
          to label %_ZN4leanmlENS_3mpzEi.exit unwind label %33

_ZN4leanmlENS_3mpzEi.exit:                        ; preds = %.noexc22
  %31 = invoke fastcc noundef ptr @_ZN4leanL10mpz_to_intERKNS_3mpzE(ptr noundef nonnull align 8 dereferenceable(16) %5)
          to label %32 unwind label %35

32:                                               ; preds = %_ZN4leanmlENS_3mpzEi.exit
  call void @_ZN4lean3mpzD1Ev(ptr noundef nonnull align 8 dereferenceable(16) %5) #40
  call void @_ZN4lean3mpzD1Ev(ptr noundef nonnull align 8 dereferenceable(16) %6) #40
  call void @llvm.lifetime.end.p0(i64 16, ptr nonnull %5) #40
  br label %48

33:                                               ; preds = %.noexc22, %27
  %34 = landingpad { ptr, i32 }
          cleanup
  br label %37

35:                                               ; preds = %_ZN4leanmlENS_3mpzEi.exit
  %36 = landingpad { ptr, i32 }
          cleanup
  call void @_ZN4lean3mpzD1Ev(ptr noundef nonnull align 8 dereferenceable(16) %5) #40
  br label %37

37:                                               ; preds = %35, %33
  %.pn16 = phi { ptr, i32 } [ %36, %35 ], [ %34, %33 ]
  call void @_ZN4lean3mpzD1Ev(ptr noundef nonnull align 8 dereferenceable(16) %6) #40
  call void @llvm.lifetime.end.p0(i64 16, ptr nonnull %5) #40
  br label %49

38:                                               ; preds = %23
  call void @llvm.lifetime.start.p0(i64 16, ptr nonnull %7) #40
  call void @_ZN4lean3mpzC1ERKS0_(ptr noundef nonnull align 8 dereferenceable(16) %8, ptr noundef nonnull align 8 dereferenceable(16) %26)
  %39 = getelementptr inbounds nuw i8, ptr %1, i64 8
  %40 = invoke noundef nonnull align 8 dereferenceable(16) ptr @_ZN4lean3mpzmLERKS0_(ptr noundef nonnull align 8 dereferenceable(16) %8, ptr noundef nonnull align 8 dereferenceable(16) %39)
          to label %.noexc24 unwind label %43

.noexc24:                                         ; preds = %38
  invoke void @_ZN4lean3mpzC1ERKS0_(ptr noundef nonnull align 8 dereferenceable(16) %7, ptr noundef nonnull align 8 dereferenceable(16) %40)
          to label %_ZN4leanmlENS_3mpzERKS0_.exit unwind label %43

_ZN4leanmlENS_3mpzERKS0_.exit:                    ; preds = %.noexc24
  %41 = invoke fastcc noundef ptr @_ZN4leanL10mpz_to_intERKNS_3mpzE(ptr noundef nonnull align 8 dereferenceable(16) %7)
          to label %42 unwind label %45

42:                                               ; preds = %_ZN4leanmlENS_3mpzERKS0_.exit
  call void @_ZN4lean3mpzD1Ev(ptr noundef nonnull align 8 dereferenceable(16) %7) #40
  call void @_ZN4lean3mpzD1Ev(ptr noundef nonnull align 8 dereferenceable(16) %8) #40
  call void @llvm.lifetime.end.p0(i64 16, ptr nonnull %7) #40
  br label %48

43:                                               ; preds = %.noexc24, %38
  %44 = landingpad { ptr, i32 }
          cleanup
  br label %47

45:                                               ; preds = %_ZN4leanmlENS_3mpzERKS0_.exit
  %46 = landingpad { ptr, i32 }
          cleanup
  call void @_ZN4lean3mpzD1Ev(ptr noundef nonnull align 8 dereferenceable(16) %7) #40
  br label %47

47:                                               ; preds = %45, %43
  %.pn = phi { ptr, i32 } [ %46, %45 ], [ %44, %43 ]
  call void @_ZN4lean3mpzD1Ev(ptr noundef nonnull align 8 dereferenceable(16) %8) #40
  call void @llvm.lifetime.end.p0(i64 16, ptr nonnull %7) #40
  br label %49

48:                                               ; preds = %42, %32, %17
  %.014 = phi ptr [ %16, %17 ], [ %31, %32 ], [ %41, %42 ]
  ret ptr %.014

49:                                               ; preds = %47, %37, %22
  %.pn18.pn = phi { ptr, i32 } [ %.pn18, %22 ], [ %.pn16, %37 ], [ %.pn, %47 ]
  resume { ptr, i32 } %.pn18.pn
}